; Function Attrs: nounwind uwtable
define ptr @Vta_ManUnsatCore(i32 noundef %0, ptr noundef %1, i32 noundef %2, i32 %3, ptr noundef writeonly %4, ptr noundef writeonly %5) local_unnamed_addr #0 {
Abc_Clock.exit:
  %6 = alloca %struct.timespec, align 8
  %7 = alloca %struct.timespec, align 8
  %8 = alloca i32, align 4
  store i32 %0, ptr %8, align 4, !tbaa !10
  call void @llvm.lifetime.start.p0(i64 16, ptr nonnull %7) #28
  %9 = call i32 @clock_gettime(i32 noundef 1, ptr noundef nonnull %7) #28
  call void @llvm.lifetime.end.p0(i64 16, ptr nonnull %7) #28
  %10 = getelementptr inbounds nuw i8, ptr %1, i64 560
  %11 = load i64, ptr %10, align 8, !tbaa !153
  %12 = trunc i64 %11 to i32
  %.not = icmp eq ptr %4, null
  br i1 %.not, label %14, label %13

13:                                               ; preds = %Abc_Clock.exit
  store i32 1, ptr %4, align 4, !tbaa !10
  br label %14

14:                                               ; preds = %13, %Abc_Clock.exit
  %15 = icmp slt i32 %0, 0
  br i1 %15, label %Vec_IntPush.exit, label %21

Vec_IntPush.exit:                                 ; preds = %14
  %16 = call noalias dereferenceable_or_null(16) ptr @malloc(i64 noundef 16) #25
  %17 = getelementptr inbounds nuw i8, ptr %16, i64 4
  store i32 16, ptr %16, align 8, !tbaa !16
  %18 = call noalias dereferenceable_or_null(64) ptr @malloc(i64 noundef 64) #25
  %19 = getelementptr inbounds nuw i8, ptr %16, i64 8
  store ptr %18, ptr %19, align 8, !tbaa !3
  %20 = sub nsw i32 0, %0
  store i32 1, ptr %17, align 4, !tbaa !15
  store i32 %20, ptr %18, align 4, !tbaa !10
  br label %36

21:                                               ; preds = %14
  %22 = getelementptr inbounds nuw i8, ptr %8, i64 4
  %23 = sext i32 %2 to i64
  %24 = call i32 @sat_solver2_solve(ptr noundef nonnull %1, ptr noundef nonnull %8, ptr noundef nonnull %22, i64 noundef %23, i64 noundef 0, i64 noundef 0, i64 noundef 0) #28
  %.not24 = icmp eq ptr %5, null
  br i1 %.not24, label %29, label %25

25:                                               ; preds = %21
  %26 = load i64, ptr %10, align 8, !tbaa !153
  %27 = trunc i64 %26 to i32
  %28 = sub nsw i32 %27, %12
  store i32 %28, ptr %5, align 4, !tbaa !10
  br label %29

29:                                               ; preds = %25, %21
  switch i32 %24, label %Abc_Clock.exit26 [
    i32 0, label %30
    i32 1, label %32
  ]

30:                                               ; preds = %29
  br i1 %.not, label %36, label %31

31:                                               ; preds = %30
  store i32 -1, ptr %4, align 4, !tbaa !10
  br label %36

32:                                               ; preds = %29
  br i1 %.not, label %36, label %33

33:                                               ; preds = %32
  store i32 0, ptr %4, align 4, !tbaa !10
  br label %36

Abc_Clock.exit26:                                 ; preds = %29
  call void @llvm.lifetime.start.p0(i64 16, ptr nonnull %6) #28
  %34 = call i32 @clock_gettime(i32 noundef 1, ptr noundef nonnull %6) #28
  call void @llvm.lifetime.end.p0(i64 16, ptr nonnull %6) #28
  %35 = call ptr @Sat_ProofCore(ptr noundef nonnull %1) #28
  br label %36

36:                                               ; preds = %32, %33, %30, %31, %Abc_Clock.exit26, %Vec_IntPush.exit
  %.0 = phi ptr [ %16, %Vec_IntPush.exit ], [ %35, %Abc_Clock.exit26 ], [ null, %31 ], [ null, %30 ], [ null, %33 ], [ null, %32 ]
  ret ptr %.0
}